; Function Attrs: null_pointer_is_valid sspstrong uwtable
define internal range(i32 -268435456, 268435456) i32 @dissect_RRCContainer_RRCSetupComplete_PDU(ptr noundef %0, ptr noundef %1, ptr noundef %2, ptr readnone captures(none) %3) #0 {
  %5 = alloca ptr, align 8
  %6 = alloca %struct._asn1_ctx_t, align 8
  call void @llvm.lifetime.start.p0(i64 208, ptr nonnull %6) #6
  call void @asn1_ctx_init(ptr noundef nonnull %6, i32 noundef 1, i1 noundef zeroext true, ptr noundef %1)
  %7 = load i32, ptr @hf_f1ap_RRCContainer_RRCSetupComplete_PDU, align 4
  call void @llvm.lifetime.start.p0(i64 8, ptr nonnull %5) #6
  store ptr null, ptr %5, align 8
  %8 = call i32 @dissect_per_octet_string(ptr noundef %0, i32 noundef 0, ptr noundef nonnull %6, ptr noundef %2, i32 noundef %7, i32 noundef -1, i32 noundef -1, i1 noundef zeroext false, ptr noundef nonnull %5)
  %9 = load ptr, ptr %5, align 8
  %.not.i = icmp eq ptr %9, null
  br i1 %.not.i, label %dissect_f1ap_RRCContainer_RRCSetupComplete.exit, label %10

10:                                               ; preds = %4
  %11 = getelementptr inbounds nuw i8, ptr %6, i64 24
  %12 = load ptr, ptr %11, align 8
  %13 = load i32, ptr @ett_f1ap_RRCContainer_RRCSetupComplete, align 4
  %14 = call ptr @proto_item_add_subtree(ptr noundef %12, i32 noundef %13)
  %15 = getelementptr inbounds nuw i8, ptr %6, i64 16
  %16 = load ptr, ptr %15, align 8
  %17 = getelementptr inbounds nuw i8, ptr %16, i64 8
  %18 = load ptr, ptr %17, align 8
  call void @col_append_str(ptr noundef %18, i32 noundef 35, ptr noundef nonnull @.str.7068)
  %19 = load ptr, ptr %15, align 8
  %20 = getelementptr inbounds nuw i8, ptr %19, i64 8
  %21 = load ptr, ptr %20, align 8
  call void @col_set_fence(ptr noundef %21, i32 noundef 35)
  %22 = load ptr, ptr %15, align 8
  %23 = getelementptr inbounds nuw i8, ptr %22, i64 8
  %24 = load ptr, ptr %23, align 8
  call void @col_set_fence(ptr noundef %24, i32 noundef 25)
  %25 = load ptr, ptr @nr_rrc_ul_dcch_handle, align 8
  %26 = load ptr, ptr %5, align 8
  %27 = load ptr, ptr %15, align 8
  %28 = call i32 @call_dissector(ptr noundef %25, ptr noundef %26, ptr noundef %27, ptr noundef %14)
  br label %dissect_f1ap_RRCContainer_RRCSetupComplete.exit

dissect_f1ap_RRCContainer_RRCSetupComplete.exit:  ; preds = %4, %10
  call void @llvm.lifetime.end.p0(i64 8, ptr nonnull %5) #6
  %29 = add i32 %8, 7
  %30 = ashr i32 %29, 3
  call void @llvm.lifetime.end.p0(i64 208, ptr nonnull %6) #6
  ret i32 %30
}